target datalayout = "e-m:e-p270:32:32-p271:32:32-p272:64:64-i64:64-i128:128-f80:128-n8:16:32:64-S128"
target triple = "x86_64-unknown-linux-gnu"

; Function Attrs: mustprogress nounwind uwtable
define internal noundef i32 @_ZN4node6crypto12_GLOBAL__N_112GetBytesOfRSERKNS0_14ManagedEVPPKeyE(ptr noundef nonnull align 8 dereferenceable(32) %pkey) #4 {
entry:
  %retval = alloca i32, align 4
  %pkey.addr = alloca ptr, align 8
  %bits = alloca i32, align 4
  %base_id = alloca i32, align 4
  %dsa_key = alloca ptr, align 8
  %ec_key = alloca ptr, align 8
  %ec_group = alloca ptr, align 8
  store ptr %pkey, ptr %pkey.addr, align 8
  %0 = load ptr, ptr %pkey.addr, align 8
  %call = call noundef ptr @_ZNK4node6crypto14ManagedEVPPKey3getEv(ptr noundef nonnull align 8 dereferenceable(32) %0)
  %call1 = call i32 @EVP_PKEY_get_base_id(ptr noundef %call)
  store i32 %call1, ptr %base_id, align 4
  %1 = load i32, ptr %base_id, align 4
  %cmp = icmp eq i32 %1, 116
  br i1 %cmp, label %if.then, label %if.else

if.then:                                          ; preds = %entry
  %2 = load ptr, ptr %pkey.addr, align 8
  %call2 = call noundef ptr @_ZNK4node6crypto14ManagedEVPPKey3getEv(ptr noundef nonnull align 8 dereferenceable(32) %2)
  %call3 = call ptr @EVP_PKEY_get0_DSA(ptr noundef %call2)
  store ptr %call3, ptr %dsa_key, align 8
  %3 = load ptr, ptr %dsa_key, align 8
  %call4 = call ptr @DSA_get0_q(ptr noundef %3)
  %call5 = call i32 @BN_num_bits(ptr noundef %call4)
  store i32 %call5, ptr %bits, align 4
  br label %if.end13

if.else:                                          ; preds = %entry
  %4 = load i32, ptr %base_id, align 4
  %cmp6 = icmp eq i32 %4, 408
  br i1 %cmp6, label %if.then7, label %if.else12

if.then7:                                         ; preds = %if.else
  %5 = load ptr, ptr %pkey.addr, align 8
  %call8 = call noundef ptr @_ZNK4node6crypto14ManagedEVPPKey3getEv(ptr noundef nonnull align 8 dereferenceable(32) %5)
  %call9 = call ptr @EVP_PKEY_get0_EC_KEY(ptr noundef %call8)
  store ptr %call9, ptr %ec_key, align 8
  %6 = load ptr, ptr %ec_key, align 8
  %call10 = call ptr @EC_KEY_get0_group(ptr noundef %6)
  store ptr %call10, ptr %ec_group, align 8
  %7 = load ptr, ptr %ec_group, align 8
  %call11 = call i32 @EC_GROUP_order_bits(ptr noundef %7)
  store i32 %call11, ptr %bits, align 4
  br label %if.end

if.else12:                                        ; preds = %if.else
  store i32 -1, ptr %retval, align 4
  br label %return

if.end:                                           ; preds = %if.then7
  br label %if.end13

if.end13:                                         ; preds = %if.end, %if.then
  %8 = load i32, ptr %bits, align 4
  %add = add nsw i32 %8, 7
  %div = sdiv i32 %add, 8
  store i32 %div, ptr %retval, align 4
  br label %return

return:                                           ; preds = %if.end13, %if.else12
  %9 = load i32, ptr %retval, align 4
  ret i32 %9
}