; Function Attrs: mustprogress nounwind uwtable
define internal fastcc noundef i32 @_ZN4node6crypto12_GLOBAL__N_112GetBytesOfRSERKNS0_14ManagedEVPPKeyE(ptr noundef nonnull align 8 dereferenceable(32) %pkey) unnamed_addr #3 {
entry:
  %call = tail call noundef ptr @_ZNK4node6crypto14ManagedEVPPKey3getEv(ptr noundef nonnull align 8 dereferenceable(32) %pkey) #21
  %call1 = tail call i32 @EVP_PKEY_get_base_id(ptr noundef %call) #21
  switch i32 %call1, label %return [
    i32 116, label %if.then
    i32 408, label %if.then7
  ]

if.then:                                          ; preds = %entry
  %call2 = tail call noundef ptr @_ZNK4node6crypto14ManagedEVPPKey3getEv(ptr noundef nonnull align 8 dereferenceable(32) %pkey) #21
  %call3 = tail call ptr @EVP_PKEY_get0_DSA(ptr noundef %call2) #21
  %call4 = tail call ptr @DSA_get0_q(ptr noundef %call3) #21
  %call5 = tail call i32 @BN_num_bits(ptr noundef %call4) #21
  br label %if.end13

if.then7:                                         ; preds = %entry
  %call8 = tail call noundef ptr @_ZNK4node6crypto14ManagedEVPPKey3getEv(ptr noundef nonnull align 8 dereferenceable(32) %pkey) #21
  %call9 = tail call ptr @EVP_PKEY_get0_EC_KEY(ptr noundef %call8) #21
  %call10 = tail call ptr @EC_KEY_get0_group(ptr noundef %call9) #21
  %call11 = tail call i32 @EC_GROUP_order_bits(ptr noundef %call10) #21
  br label %if.end13

if.end13:                                         ; preds = %if.then7, %if.then
  %bits.0 = phi i32 [ %call5, %if.then ], [ %call11, %if.then7 ]
  %add = add nsw i32 %bits.0, 7
  %div = sdiv i32 %add, 8
  br label %return

return:                                           ; preds = %entry, %if.end13
  %retval.0 = phi i32 [ %div, %if.end13 ], [ -1, %entry ]
  ret i32 %retval.0
}